; Function Attrs: mustprogress nofree norecurse nosync nounwind willreturn memory(argmem: read) uwtable
define dso_local { ptr, i64 } @_ZN5clang4ento14CheckerContext18getDeclDescriptionEPKNS_4DeclE(ptr noundef nonnull readnone align 8 captures(none) dereferenceable(81) %0, ptr noundef readonly captures(none) %1) local_unnamed_addr #3 align 2 {
  %3 = getelementptr inbounds nuw i8, ptr %1, i64 28
  %4 = load i32, ptr %3, align 4
  %5 = and i32 %4, 127
  %6 = icmp eq i32 %5, 15
  %7 = and i32 %4, 124
  %8 = icmp eq i32 %7, 32
  %9 = or i1 %6, %8
  %10 = icmp eq i32 %5, 7
  %.str.1..str.2 = select i1 %10, ptr @.str.1, ptr @.str.2
  %. = select i1 %10, i64 15, i64 8
  %.sroa.0.0 = select i1 %9, ptr @.str, ptr %.str.1..str.2
  %.sroa.4.0 = select i1 %9, i64 6, i64 %.
  %.fca.0.insert = insertvalue { ptr, i64 } poison, ptr %.sroa.0.0, 0
  %.fca.1.insert = insertvalue { ptr, i64 } %.fca.0.insert, i64 %.sroa.4.0, 1
  ret { ptr, i64 } %.fca.1.insert
}